
led_drv.ko:     file format elf32-littlearm

Disassembly of section .text:

00000000 <led_write>:
   0:	e1a0c00d 	mov	ip, sp
   4:	e92dd810 	stmdb	sp!, {r4, fp, ip, lr, pc}
   8:	e24cb004 	sub	fp, ip, #4	; 0x4
   c:	e24dd004 	sub	sp, sp, #4	; 0x4
  10:	e3cd3d7f 	bic	r3, sp, #8128	; 0x1fc0
  14:	e3c3303f 	bic	r3, r3, #63	; 0x3f
  18:	e5933008 	ldr	r3, [r3, #8]
  1c:	e24bc010 	sub	ip, fp, #16	; 0x10
  20:	e2912004 	adds	r2, r1, #4	; 0x4
  24:	30d22003 	sbcccs	r2, r2, r3
  28:	33a03000 	movcc	r3, #0	; 0x0
  2c:	e3530000 	cmp	r3, #0	; 0x0
  30:	e3a03000 	mov	r3, #0	; 0x0
  34:	e5904074 	ldr	r4, [r0, #116]
  38:	e52c3004 	str	r3, [ip, #-4]!
  3c:	e2833004 	add	r3, r3, #4	; 0x4
  40:	e1a0000c 	mov	r0, ip
  44:	e1a02003 	mov	r2, r3
  48:	0a000014 	beq	a0 <led_write+0xa0>
  4c:	e1a01003 	mov	r1, r3
  50:	ebfffffe 	bl	50 <led_write+0x50>
  54:	ea000017 	b	b8 <led_close+0x14>
  58:	ebfffffe 	bl	58 <led_write+0x58>
  5c:	e3500000 	cmp	r0, #0	; 0x0
  60:	0a000019 	beq	cc <led_open+0x8>
  64:	e3e0000d 	mvn	r0, #13	; 0xd
  68:	e89da818 	ldmia	sp, {r3, r4, fp, sp, pc}
  6c:	e5943054 	ldr	r3, [r4, #84]
  70:	e3a00000 	mov	r0, #0	; 0x0
  74:	e5932000 	ldr	r2, [r3]
  78:	e3c22c3f 	bic	r2, r2, #16128	; 0x3f00
  7c:	e3822c15 	orr	r2, r2, #5376	; 0x1500
  80:	e5832000 	str	r2, [r3]
  84:	e5941058 	ldr	r1, [r4, #88]
  88:	e51b3014 	ldr	r3, [fp, #-20]
  8c:	e5912000 	ldr	r2, [r1]
  90:	e3530001 	cmp	r3, #1	; 0x1
  94:	03c22070 	biceq	r2, r2, #112	; 0x70
  98:	13822070 	orrne	r2, r2, #112	; 0x70
  9c:	e5812000 	str	r2, [r1]
  a0:	e89da818 	ldmia	sp, {r3, r4, fp, sp, pc}

000000a4 <led_close>:
  a4:	e1a0c00d 	mov	ip, sp
  a8:	e92dd800 	stmdb	sp!, {fp, ip, lr, pc}
  ac:	e24cb004 	sub	fp, ip, #4	; 0x4
  b0:	e5913074 	ldr	r3, [r1, #116]
  b4:	e5930054 	ldr	r0, [r3, #84]
  b8:	ebfffffe 	bl	b8 <led_close+0x14>
  bc:	e3a00000 	mov	r0, #0	; 0x0
  c0:	e89da800 	ldmia	sp, {fp, sp, pc}

000000c4 <led_open>:
  c4:	e1a0c00d 	mov	ip, sp
  c8:	e92dd810 	stmdb	sp!, {r4, fp, ip, lr, pc}
  cc:	e24cb004 	sub	fp, ip, #4	; 0x4
  d0:	e59040e4 	ldr	r4, [r0, #228]
  d4:	e3a02000 	mov	r2, #0	; 0x0
  d8:	e5814074 	str	r4, [r1, #116]
  dc:	e59f0018 	ldr	r0, [pc, #24]	; fc <.text+0xfc>
  e0:	e3a01008 	mov	r1, #8	; 0x8
  e4:	ebfffffe 	bl	e4 <led_open+0x20>
  e8:	e2803004 	add	r3, r0, #4	; 0x4
  ec:	e5840054 	str	r0, [r4, #84]
  f0:	e3a00000 	mov	r0, #0	; 0x0
  f4:	e5843058 	str	r3, [r4, #88]
  f8:	e89da810 	ldmia	sp, {r4, fp, sp, pc}
  fc:	56000050 	undefined
Disassembly of section .init.text:

00000000 <init_module>:
   0:	e1a0c00d 	mov	ip, sp
   4:	e92dd870 	stmdb	sp!, {r4, r5, r6, fp, ip, lr, pc}
   8:	e24cb004 	sub	fp, ip, #4	; 0x4
   c:	e24dd004 	sub	sp, sp, #4	; 0x4
  10:	e3a01000 	mov	r1, #0	; 0x0
  14:	e59f30b0 	ldr	r3, [pc, #176]	; cc <.init.text+0xcc>
  18:	e3a02001 	mov	r2, #1	; 0x1
  1c:	e24b001c 	sub	r0, fp, #28	; 0x1c
  20:	ebfffffe 	bl	20 <init_module+0x20>
  24:	e2504000 	subs	r4, r0, #0	; 0x0
  28:	e3a010d0 	mov	r1, #208	; 0xd0
  2c:	e59f609c 	ldr	r6, [pc, #156]	; d0 <.init.text+0xd0>
  30:	e59f009c 	ldr	r0, [pc, #156]	; d4 <.init.text+0xd4>
  34:	0a00000f 	beq	78 <init_module+0x78>
  38:	ebfffffe 	bl	38 <init_module+0x38>
  3c:	e1a00004 	mov	r0, r4
  40:	e89da878 	ldmia	sp, {r3, r4, r5, r6, fp, sp, pc}
  44:	e59f308c 	ldr	r3, [pc, #140]	; d8 <.init.text+0xd8>
  48:	e3e0400b 	mvn	r4, #11	; 0xb
  4c:	e5930004 	ldr	r0, [r3, #4]
  50:	ebfffffe 	bl	50 <init_module+0x50>
  54:	e3500000 	cmp	r0, #0	; 0x0
  58:	e5860000 	str	r0, [r6]
  5c:	e1a05006 	mov	r5, r6
  60:	e3a01060 	mov	r1, #96	; 0x60
  64:	0a00002c 	beq	11c <.init.text+0x11c>
  68:	ebfffffe 	bl	68 <init_module+0x68>
  6c:	e51b301c 	ldr	r3, [fp, #-28]
  70:	e5962000 	ldr	r2, [r6]
  74:	e1a03a23 	mov	r3, r3, lsr #20
  78:	e582305c 	str	r3, [r2, #92]
  7c:	e5960000 	ldr	r0, [r6]
  80:	e59f1054 	ldr	r1, [pc, #84]	; dc <.init.text+0xdc>
  84:	ebfffffe 	bl	84 <init_module+0x84>
  88:	e5961000 	ldr	r1, [r6]
  8c:	e59f304c 	ldr	r3, [pc, #76]	; e0 <.init.text+0xe0>
  90:	e3a02001 	mov	r2, #1	; 0x1
  94:	e581303c 	str	r3, [r1, #60]
  98:	e5960000 	ldr	r0, [r6]
  9c:	e51b101c 	ldr	r1, [fp, #-28]
  a0:	ebfffffe 	bl	a0 <init_module+0xa0>
  a4:	e2504000 	subs	r4, r0, #0	; 0x0
  a8:	e1a00004 	mov	r0, r4
  ac:	089da878 	ldmeqia	sp, {r3, r4, r5, r6, fp, sp, pc}
  b0:	e5960000 	ldr	r0, [r6]
  b4:	ebfffffe 	bl	b4 <init_module+0xb4>
  b8:	e51b001c 	ldr	r0, [fp, #-28]
  bc:	e3a01001 	mov	r1, #1	; 0x1
  c0:	ebfffffe 	bl	c0 <init_module+0xc0>
  c4:	e1a00004 	mov	r0, r4
  c8:	e89da878 	ldmia	sp, {r3, r4, r5, r6, fp, sp, pc}
	...
  d4:	00000008 	andeq	r0, r0, r8
  d8:	00000018 	andeq	r0, r0, r8, lsl r0
	...
Disassembly of section .exit.text:

00000000 <cleanup_module>:
   0:	e1a0c00d 	mov	ip, sp
   4:	e92dd810 	stmdb	sp!, {r4, fp, ip, lr, pc}
   8:	e24cb004 	sub	fp, ip, #4	; 0x4
   c:	e59f4024 	ldr	r4, [pc, #36]	; 38 <.exit.text+0x38>
  10:	e5940000 	ldr	r0, [r4]
  14:	ebfffffe 	bl	14 <cleanup_module+0x14>
  18:	e5943000 	ldr	r3, [r4]
  1c:	e3a01001 	mov	r1, #1	; 0x1
  20:	e593005c 	ldr	r0, [r3, #92]
  24:	e1a00a00 	mov	r0, r0, lsl #20
  28:	ebfffffe 	bl	28 <cleanup_module+0x28>
  2c:	e5940000 	ldr	r0, [r4]
  30:	ebfffffe 	bl	30 <cleanup_module+0x30>
  34:	e89da810 	ldmia	sp, {r4, fp, sp, pc}
  38:	00000000 	andeq	r0, r0, r0
Disassembly of section .modinfo:

00000000 <__mod_license130>:
   0:	6563696c 	strvsb	r6, [r3, #-2412]!
   4:	3d65736e 	stcccl	3, cr7, [r5, #-440]!
   8:	204c5047 	subcs	r5, ip, r7, asr #32
   c:	00003276 	andeq	r3, r0, r6, ror r2

00000010 <__module_depends>:
  10:	65706564 	ldrvsb	r6, [r0, #-1380]!
  14:	3d73646e 	cfldrdcc	mvd6, [r3, #-440]!
  18:	6c697562 	cfstr64vs	mvdx7, [r9], #-392
  1c:	6e692d74 	mcrvs	13, 3, r2, cr9, cr4, {3}
  20:	6975622c 	ldmvsdb	r5!, {r2, r3, r5, r9, sp, lr}^
  24:	692d746c 	stmvsdb	sp!, {r2, r3, r5, r6, sl, ip, sp, lr}
  28:	75622c6e 	strvcb	r2, [r2, #-3182]!
  2c:	2d746c69 	ldccsl	12, cr6, [r4, #-420]!
  30:	622c6e69 	eorvs	r6, ip, #1680	; 0x690
  34:	746c6975 	strvcbt	r6, [ip], #-2421
  38:	2c6e692d 	stccsl	9, cr6, [lr], #-180
  3c:	6c697562 	cfstr64vs	mvdx7, [r9], #-392
  40:	6e692d74 	mcrvs	13, 3, r2, cr9, cr4, {3}
  44:	00000000 	andeq	r0, r0, r0

00000048 <__mod_vermagic5>:
  48:	6d726576 	cfldr64vs	mvdx6, [r2, #-472]!
  4c:	63696761 	cmnvs	r9, #25427968	; 0x1840000
  50:	362e323d 	undefined
  54:	2e32322e 	cdpcs	2, 3, cr3, cr2, cr14, {1}
  58:	6f6d2036 	swivs	0x006d2036
  5c:	6e755f64 	cdpvs	15, 7, cr5, cr5, cr4, {3}
  60:	64616f6c 	strvsbt	r6, [r1], #-3948
  64:	4d524120 	ldfmie	f4, [r2, #-128]
  68:	00203476 	eoreq	r3, r0, r6, ror r4